; Function Attrs: mustprogress nounwind uwtable
define void @_ZN32pxrInternal_v0_24__pxrReserved__14Hf_PluginEntryD2Ev(ptr noundef nonnull align 8 dereferenceable(64) %0) unnamed_addr #2 align 2 personality ptr @__gxx_personality_v0 {
  %2 = alloca %"class.pxrInternal_v0_24__pxrReserved__::TfCallContext", align 8
  %3 = getelementptr inbounds nuw i8, ptr %0, i64 48
  %4 = load ptr, ptr %3, align 8
  %5 = icmp eq ptr %4, null
  br i1 %5, label %.critedge, label %6

6:                                                ; preds = %1
  store ptr @.str, ptr %2, align 8
  %7 = getelementptr inbounds nuw i8, ptr %2, i64 8
  store ptr @__func__._ZN32pxrInternal_v0_24__pxrReserved__14Hf_PluginEntryD2Ev, ptr %7, align 8
  %8 = getelementptr inbounds nuw i8, ptr %2, i64 16
  store i64 31, ptr %8, align 8
  %9 = getelementptr inbounds nuw i8, ptr %2, i64 24
  store ptr @__PRETTY_FUNCTION__._ZN32pxrInternal_v0_24__pxrReserved__14Hf_PluginEntryD2Ev, ptr %9, align 8
  %10 = getelementptr inbounds nuw i8, ptr %2, i64 32
  store i8 0, ptr %10, align 8
  %11 = invoke noundef zeroext i1 @_ZN32pxrInternal_v0_24__pxrReserved__21Tf_FailedVerifyHelperERKNS_13TfCallContextEPKcS4_(ptr noundef nonnull align 8 dereferenceable(33) %2, ptr noundef nonnull @.str.1, ptr noundef null)
          to label %12 unwind label %21

12:                                               ; preds = %6
  br i1 %11, label %.critedge, label %13

13:                                               ; preds = %12
  %14 = load ptr, ptr %3, align 8
  %15 = icmp eq ptr %14, null
  br i1 %15, label %.critedge, label %16

16:                                               ; preds = %13
  %17 = load ptr, ptr %14, align 8
  %18 = getelementptr inbounds i8, ptr %17, i64 8
  %19 = load ptr, ptr %18, align 8
  call void %19(ptr noundef nonnull align 8 dereferenceable(8) %14) #11
  br label %.critedge

.critedge:                                        ; preds = %1, %13, %16, %12
  %20 = getelementptr inbounds nuw i8, ptr %0, i64 8
  call void @_ZNSt7__cxx1112basic_stringIcSt11char_traitsIcESaIcEED1Ev(ptr noundef nonnull align 8 dereferenceable(32) %20) #11
  ret void

21:                                               ; preds = %6
  %22 = landingpad { ptr, i32 }
          catch ptr null
  %23 = extractvalue { ptr, i32 } %22, 0
  call void @__clang_call_terminate(ptr %23) #12
  unreachable
}